target datalayout = "e-m:e-p270:32:32-p271:32:32-p272:64:64-i64:64-i128:128-f80:128-n8:16:32:64-S128"
target triple = "x86_64-pc-linux-gnu"

%"class.arrow::RecordBatchBuilder" = type { %"class.std::shared_ptr", i64, ptr, %"class.std::vector", %"class.std::vector.7" }
%"class.std::shared_ptr" = type { %"class.std::__shared_ptr" }
%"class.std::__shared_ptr" = type { ptr, %"class.std::__shared_count" }
%"class.std::__shared_count" = type { ptr }
%"class.std::vector" = type { %"struct.std::_Vector_base" }
%"struct.std::_Vector_base" = type { %"struct.std::_Vector_base<std::unique_ptr<arrow::ArrayBuilder>, std::allocator<std::unique_ptr<arrow::ArrayBuilder>>>::_Vector_impl" }
%"struct.std::_Vector_base<std::unique_ptr<arrow::ArrayBuilder>, std::allocator<std::unique_ptr<arrow::ArrayBuilder>>>::_Vector_impl" = type { %"struct.std::_Vector_base<std::unique_ptr<arrow::ArrayBuilder>, std::allocator<std::unique_ptr<arrow::ArrayBuilder>>>::_Vector_impl_data" }
%"struct.std::_Vector_base<std::unique_ptr<arrow::ArrayBuilder>, std::allocator<std::unique_ptr<arrow::ArrayBuilder>>>::_Vector_impl_data" = type { ptr, ptr, ptr }
%"class.std::vector.7" = type { %"struct.std::_Vector_base.8" }
%"struct.std::_Vector_base.8" = type { %"struct.std::_Vector_base<arrow::ArrayBuilder *, std::allocator<arrow::ArrayBuilder *>>::_Vector_impl" }
%"struct.std::_Vector_base<arrow::ArrayBuilder *, std::allocator<arrow::ArrayBuilder *>>::_Vector_impl" = type { %"struct.std::_Vector_base<arrow::ArrayBuilder *, std::allocator<arrow::ArrayBuilder *>>::_Vector_impl_data" }
%"struct.std::_Vector_base<arrow::ArrayBuilder *, std::allocator<arrow::ArrayBuilder *>>::_Vector_impl_data" = type { ptr, ptr, ptr }
%"class.arrow::util::Voidify" = type { i8 }
%"class.arrow::util::ArrowLog" = type <{ %"class.arrow::util::ArrowLogBase", ptr, i8, [7 x i8] }>
%"class.arrow::util::ArrowLogBase" = type { ptr }

@.str.1 = private unnamed_addr constant [120 x i8] c"generated/home/dtcxzyw/WorkSpace/Projects/compilers/llvm-opt-benchmark/bench/arrow/arrow/cpp/src/arrow/table_builder.cc\00", align 1
@.str.2 = private unnamed_addr constant [33 x i8] c" Check failed: (capacity) > (0) \00", align 1
@.str.3 = private unnamed_addr constant [34 x i8] c"Initial capacity must be positive\00", align 1

; Function Attrs: mustprogress nounwind uwtable
define linkonce_odr void @_ZN5arrow4util7VoidifyanERNS0_12ArrowLogBaseE(ptr noundef nonnull align 1 dereferenceable(1) %0, ptr noundef nonnull align 8 dereferenceable(8) %1) #0 comdat align 2 {
  %3 = alloca ptr, align 8
  %4 = alloca ptr, align 8
  store ptr %0, ptr %3, align 8, !tbaa !180
  store ptr %1, ptr %4, align 8, !tbaa !182
  ret void
}

; Function Attrs: mustprogress nounwind uwtable
define linkonce_odr void @_ZN5arrow4util7VoidifyC2Ev(ptr noundef nonnull align 1 dereferenceable(1) %0) unnamed_addr #0 comdat align 2 {
  %2 = alloca ptr, align 8
  store ptr %0, ptr %2, align 8, !tbaa !180
  ret void
}

; Function Attrs: mustprogress uwtable
define void @_ZN5arrow18RecordBatchBuilder18SetInitialCapacityEl(ptr noundef nonnull align 8 dereferenceable(80) %0, i64 noundef %1) #1 align 2 personality ptr @__gxx_personality_v0 {
  %3 = alloca ptr, align 8
  %4 = alloca i64, align 8
  %5 = alloca %"class.arrow::util::Voidify", align 1
  %6 = alloca %"class.arrow::util::ArrowLog", align 8
  %7 = alloca i1, align 1
  %8 = alloca i1, align 1
  %9 = alloca ptr, align 8
  %10 = alloca i32, align 4
  store ptr %0, ptr %3, align 8, !tbaa !53
  store i64 %1, ptr %4, align 8, !tbaa !43
  %11 = load ptr, ptr %3, align 8
  %12 = load i64, ptr %4, align 8, !tbaa !43
  %13 = icmp sgt i64 %12, 0
  %14 = xor i1 %13, true
  %15 = xor i1 %14, true
  %16 = zext i1 %15 to i64
  %17 = call i64 @llvm.expect.i64(i64 %16, i64 1)
  %18 = icmp ne i64 %17, 0
  call void @llvm.lifetime.start.p0(i64 1, ptr %5) #18
  store i1 false, ptr %7, align 1
  store i1 false, ptr %8, align 1
  br i1 %18, label %19, label %20

19:                                               ; preds = %2
  br label %26

20:                                               ; preds = %2
  call void @_ZN5arrow4util7VoidifyC2Ev(ptr noundef nonnull align 1 dereferenceable(1) %5)
  call void @llvm.lifetime.start.p0(i64 24, ptr %6) #18
  store i1 true, ptr %7, align 1
  call void @_ZN5arrow4util8ArrowLogC1EPKciNS0_13ArrowLogLevelE(ptr noundef nonnull align 8 dereferenceable(17) %6, ptr noundef @.str.1, i32 noundef 92, i32 noundef 3)
  store i1 true, ptr %8, align 1
  %21 = invoke noundef nonnull align 8 dereferenceable(8) ptr @_ZN5arrow4util12ArrowLogBaselsIA33_cEERS1_RKT_(ptr noundef nonnull align 8 dereferenceable(8) %6, ptr noundef nonnull align 1 dereferenceable(33) @.str.2)
          to label %22 unwind label %35

22:                                               ; preds = %20
  %23 = invoke noundef nonnull align 8 dereferenceable(8) ptr @_ZN5arrow4util12ArrowLogBaselsIA34_cEERS1_RKT_(ptr noundef nonnull align 8 dereferenceable(8) %21, ptr noundef nonnull align 1 dereferenceable(34) @.str.3)
          to label %24 unwind label %35

24:                                               ; preds = %22
  invoke void @_ZN5arrow4util7VoidifyanERNS0_12ArrowLogBaseE(ptr noundef nonnull align 1 dereferenceable(1) %5, ptr noundef nonnull align 8 dereferenceable(8) %23)
          to label %25 unwind label %35

25:                                               ; preds = %24
  br label %26

26:                                               ; preds = %25, %19
  %27 = load i1, ptr %8, align 1
  br i1 %27, label %28, label %29

28:                                               ; preds = %26
  call void @_ZN5arrow4util8ArrowLogD1Ev(ptr noundef nonnull align 8 dereferenceable(17) %6) #18
  br label %29

29:                                               ; preds = %28, %26
  %30 = load i1, ptr %7, align 1
  br i1 %30, label %31, label %32

31:                                               ; preds = %29
  call void @llvm.lifetime.end.p0(i64 24, ptr %6) #18
  br label %32

32:                                               ; preds = %31, %29
  call void @llvm.lifetime.end.p0(i64 1, ptr %5) #18
  %33 = load i64, ptr %4, align 8, !tbaa !43
  %34 = getelementptr inbounds nuw %"class.arrow::RecordBatchBuilder", ptr %11, i32 0, i32 1
  store i64 %33, ptr %34, align 8, !tbaa !59
  ret void

35:                                               ; preds = %24, %22, %20
  %36 = landingpad { ptr, i32 }
          cleanup
  %37 = extractvalue { ptr, i32 } %36, 0
  store ptr %37, ptr %9, align 8
  %38 = extractvalue { ptr, i32 } %36, 1
  store i32 %38, ptr %10, align 4
  %39 = load i1, ptr %8, align 1
  br i1 %39, label %40, label %41

40:                                               ; preds = %35
  call void @_ZN5arrow4util8ArrowLogD1Ev(ptr noundef nonnull align 8 dereferenceable(17) %6) #18
  br label %41

41:                                               ; preds = %40, %35
  %42 = load i1, ptr %7, align 1
  br i1 %42, label %43, label %44

43:                                               ; preds = %41
  call void @llvm.lifetime.end.p0(i64 24, ptr %6) #18
  br label %44

44:                                               ; preds = %43, %41
  call void @llvm.lifetime.end.p0(i64 1, ptr %5) #18
  br label %45

45:                                               ; preds = %44
  %46 = load ptr, ptr %9, align 8
  %47 = load i32, ptr %10, align 4
  %48 = insertvalue { ptr, i32 } poison, ptr %46, 0
  %49 = insertvalue { ptr, i32 } %48, i32 %47, 1
  resume { ptr, i32 } %49
}