; Function Attrs: mustprogress uwtable
define void @_ZN5arrow18RecordBatchBuilder18SetInitialCapacityEl(ptr noundef nonnull writeonly align 8 captures(none) dereferenceable(80) %0, i64 noundef %1) local_unnamed_addr #2 align 2 personality ptr @__gxx_personality_v0 {
  %3 = alloca %"class.arrow::util::ArrowLog", align 8
  %4 = icmp slt i64 %1, 1
  br i1 %4, label %5, label %.critedge9, !prof !119

5:                                                ; preds = %2
  call void @llvm.lifetime.start.p0(i64 24, ptr nonnull %3) #19
  call void @_ZN5arrow4util8ArrowLogC1EPKciNS0_13ArrowLogLevelE(ptr noundef nonnull align 8 dereferenceable(17) %3, ptr noundef nonnull @.str.1, i32 noundef 92, i32 noundef 3)
  %6 = invoke noundef nonnull align 8 dereferenceable(8) ptr @_ZN5arrow4util12ArrowLogBaselsIA33_cEERS1_RKT_(ptr noundef nonnull align 8 dereferenceable(8) %3, ptr noundef nonnull align 1 dereferenceable(33) @.str.2)
          to label %7 unwind label %10

7:                                                ; preds = %5
  %8 = invoke noundef nonnull align 8 dereferenceable(8) ptr @_ZN5arrow4util12ArrowLogBaselsIA34_cEERS1_RKT_(ptr noundef nonnull align 8 dereferenceable(8) %6, ptr noundef nonnull align 1 dereferenceable(34) @.str.3)
          to label %.critedge unwind label %10

.critedge:                                        ; preds = %7
  call void @_ZN5arrow4util8ArrowLogD1Ev(ptr noundef nonnull align 8 dereferenceable(17) %3) #19
  call void @llvm.lifetime.end.p0(i64 24, ptr nonnull %3) #19
  br label %.critedge9

.critedge9:                                       ; preds = %2, %.critedge
  %9 = getelementptr inbounds nuw i8, ptr %0, i64 16
  store i64 %1, ptr %9, align 8, !tbaa !41
  ret void

10:                                               ; preds = %7, %5
  %11 = landingpad { ptr, i32 }
          cleanup
  call void @_ZN5arrow4util8ArrowLogD1Ev(ptr noundef nonnull align 8 dereferenceable(17) %3) #19
  call void @llvm.lifetime.end.p0(i64 24, ptr nonnull %3) #19
  resume { ptr, i32 } %11
}